; Function Attrs: mustprogress uwtable
define void @_ZN6google8protobuf2io15FileInputStreamC2Eii(ptr noundef nonnull align 8 dereferenceable(88) %0, i32 noundef %1, i32 noundef %2) unnamed_addr #3 align 2 personality ptr @__gxx_personality_v0 {
  store ptr getelementptr inbounds inrange(-16, 48) (i8, ptr @_ZTVN6google8protobuf2io15FileInputStreamE, i64 16), ptr %0, align 8
  %4 = getelementptr inbounds i8, ptr %0, i64 8
  tail call void @_ZN6google8protobuf2io15FileInputStream22CopyingFileInputStreamC1Ei(ptr noundef nonnull align 8 dereferenceable(21) %4, i32 noundef %1)
  %5 = getelementptr inbounds i8, ptr %0, i64 32
  invoke void @_ZN6google8protobuf2io25CopyingInputStreamAdaptorC1EPNS1_18CopyingInputStreamEi(ptr noundef nonnull align 8 dereferenceable(52) %5, ptr noundef nonnull %4, i32 noundef %2)
          to label %6 unwind label %7

6:                                                ; preds = %3
  ret void

7:                                                ; preds = %3
  %8 = landingpad { ptr, i32 }
          cleanup
  tail call void @_ZN6google8protobuf2io15FileInputStream22CopyingFileInputStreamD1Ev(ptr noundef nonnull align 8 dereferenceable(21) %4) #12
  resume { ptr, i32 } %8
}